target datalayout = "e-m:e-p270:32:32-p271:32:32-p272:64:64-i64:64-i128:128-f80:128-n8:16:32:64-S128"
target triple = "x86_64-pc-linux-gnu"

%struct.PlatformTarget = type { ptr, i32, ptr, ptr, i32, i32, i32, i32, i32, i32, i32, [7 x %struct.AlignData], [7 x %struct.AlignData], [7 x %struct.AlignData], i32, i16, %union.anon.88, i8, i8, i8, i8, i8, i8, i8, i8, i8, i8, %struct.AlignData, i32, i32, i32, i32, i32, i32, i32, i32, i32, i32, i32, i32, i32, i32, i32, i32, ptr }
%union.anon.88 = type { %struct.anon.90 }
%struct.anon.90 = type { %struct.X86Features, i32, i32 }
%struct.X86Features = type { [2 x i64], ptr }
%struct.AlignData = type { i32, i32 }
%struct.Type_ = type { i32, ptr, ptr, ptr, %union.anon.85, ptr, ptr, %union.anon.87 }
%union.anon.85 = type { ptr }
%union.anon.87 = type { %struct.TypeFunction }
%struct.TypeFunction = type { ptr, ptr, ptr }

@platform_target = external global %struct.PlatformTarget, align 8

; Function Attrs: nounwind uwtable
define dso_local ptr @x64_indirect_return_result(ptr noundef %0) #0 {
  %2 = alloca ptr, align 8
  %3 = alloca i32, align 4
  %4 = alloca ptr, align 8
  %5 = alloca ptr, align 8
  %6 = alloca ptr, align 8
  store ptr %0, ptr %6, align 8
  %7 = load ptr, ptr %6, align 8
  %8 = call zeroext i1 @type_is_abi_aggregate(ptr noundef %7)
  br i1 %8, label %9, label %12

9:                                                ; preds = %1
  %10 = load ptr, ptr %6, align 8
  %11 = call ptr @abi_arg_new_indirect_not_by_val(ptr noundef %10)
  store ptr %11, ptr %5, align 8
  br label %48

12:                                               ; preds = %1
  %13 = load ptr, ptr %6, align 8
  %14 = call ptr @type_lowering(ptr noundef %13)
  store ptr %14, ptr %6, align 8
  %15 = load ptr, ptr %6, align 8
  store ptr %15, ptr %4, align 8
  %16 = load ptr, ptr %4, align 8
  store ptr %16, ptr %2, align 8
  %17 = load ptr, ptr %2, align 8
  %18 = load i32, ptr %17, align 8
  store i32 %18, ptr %3, align 4
  %19 = load i32, ptr %3, align 4
  %20 = icmp eq i32 %19, 31
  br i1 %20, label %21, label %26

21:                                               ; preds = %12
  %22 = load ptr, ptr %2, align 8
  %23 = getelementptr inbounds %struct.Type_, ptr %22, i32 0, i32 1
  %24 = load ptr, ptr %23, align 8
  %25 = load i32, ptr %24, align 8
  store i32 %25, ptr %3, align 4
  br label %26

26:                                               ; preds = %21, %12
  %27 = load i32, ptr %3, align 4
  %28 = icmp uge i32 %27, 2
  br i1 %28, label %29, label %32

29:                                               ; preds = %26
  %30 = load i32, ptr %3, align 4
  %31 = icmp ule i32 %30, 12
  br label %32

32:                                               ; preds = %29, %26
  %33 = phi i1 [ false, %26 ], [ %31, %29 ]
  br i1 %33, label %34, label %41

34:                                               ; preds = %32
  %35 = load ptr, ptr %4, align 8
  %36 = getelementptr inbounds %struct.Type_, ptr %35, i32 0, i32 7
  %37 = load i32, ptr %36, align 8
  %38 = and i32 %37, 255
  %39 = load i32, ptr getelementptr inbounds (%struct.PlatformTarget, ptr @platform_target, i32 0, i32 33), align 8
  %40 = icmp ult i32 %38, %39
  br label %41

41:                                               ; preds = %34, %32
  %42 = phi i1 [ false, %32 ], [ %40, %34 ]
  br i1 %42, label %43, label %46

43:                                               ; preds = %41
  %44 = load ptr, ptr %6, align 8
  %45 = call ptr @abi_arg_new_direct_int_ext(ptr noundef %44)
  store ptr %45, ptr %5, align 8
  br label %48

46:                                               ; preds = %41
  %47 = call ptr @abi_arg_new_direct()
  store ptr %47, ptr %5, align 8
  br label %48

48:                                               ; preds = %46, %43, %9
  %49 = load ptr, ptr %5, align 8
  ret ptr %49
}