; Function Attrs: nounwind uwtable
define dso_local ptr @x64_indirect_return_result(ptr noundef %0) local_unnamed_addr #1 {
  %2 = tail call zeroext i1 @type_is_abi_aggregate(ptr noundef %0) #7
  br i1 %2, label %3, label %5

3:                                                ; preds = %1
  %4 = tail call ptr @abi_arg_new_indirect_not_by_val(ptr noundef %0) #7
  br label %25

5:                                                ; preds = %1
  %6 = tail call fastcc ptr @type_lowering(ptr noundef %0)
  %7 = load i32, ptr %6, align 8
  %8 = icmp eq i32 %7, 31
  br i1 %8, label %9, label %13

9:                                                ; preds = %5
  %10 = getelementptr inbounds i8, ptr %6, i64 8
  %11 = load ptr, ptr %10, align 8
  %12 = load i32, ptr %11, align 8
  br label %13

13:                                               ; preds = %9, %5
  %.012 = phi i32 [ %12, %9 ], [ %7, %5 ]
  %14 = add i32 %.012, -2
  %15 = icmp ult i32 %14, 11
  br i1 %15, label %16, label %.critedge

16:                                               ; preds = %13
  %17 = getelementptr inbounds i8, ptr %6, i64 56
  %18 = load i32, ptr %17, align 8
  %19 = and i32 %18, 255
  %20 = load i32, ptr getelementptr inbounds (%struct.PlatformTarget, ptr @platform_target, i64 0, i32 33), align 8
  %21 = icmp ult i32 %19, %20
  br i1 %21, label %22, label %.critedge

22:                                               ; preds = %16
  %23 = tail call ptr @abi_arg_new_direct_int_ext(ptr noundef nonnull %6) #7
  br label %25

.critedge:                                        ; preds = %13, %16
  %24 = tail call ptr @abi_arg_new_direct() #7
  br label %25

25:                                               ; preds = %.critedge, %22, %3
  %.0 = phi ptr [ %4, %3 ], [ %23, %22 ], [ %24, %.critedge ]
  ret ptr %.0
}